; Function Attrs: mustprogress nounwind uwtable
define void @_ZNK4LIEF12VectorStream5sliceEjm(ptr dead_on_unwind noalias writable writeonly sret(%"class.std::unique_ptr.45") align 8 captures(none) initializes((0, 8)) %0, ptr noundef nonnull readonly align 8 captures(none) dereferenceable(56) %1, i32 noundef %2, i64 noundef %3) local_unnamed_addr #1 align 2 {
  %5 = zext i32 %2 to i64
  %6 = getelementptr inbounds nuw i8, ptr %1, i64 24
  %7 = getelementptr inbounds nuw i8, ptr %1, i64 32
  %8 = load ptr, ptr %7, align 8, !tbaa !35
  %9 = load ptr, ptr %6, align 8, !tbaa !32
  %10 = ptrtoint ptr %8 to i64
  %11 = ptrtoint ptr %9 to i64
  %12 = sub i64 %10, %11
  %13 = icmp ult i64 %12, %5
  %14 = add i64 %3, %5
  %15 = icmp ugt i64 %14, %12
  %or.cond = or i1 %13, %15
  br i1 %or.cond, label %24, label %16

16:                                               ; preds = %4
  %17 = getelementptr inbounds nuw i8, ptr %9, i64 %5
  %18 = tail call noalias noundef nonnull dereferenceable(40) ptr @_Znwm(i64 noundef 40) #23
  %19 = getelementptr inbounds nuw i8, ptr %18, i64 8
  store i64 0, ptr %19, align 8, !tbaa !46
  %20 = getelementptr inbounds nuw i8, ptr %18, i64 16
  store i8 0, ptr %20, align 8, !tbaa !47
  %21 = getelementptr inbounds nuw i8, ptr %18, i64 20
  store i32 3, ptr %21, align 4, !tbaa !48
  store ptr getelementptr inbounds nuw inrange(-16, 104) (i8, ptr @_ZTVN4LIEF10SpanStreamE, i64 16), ptr %18, align 8, !tbaa !3
  %22 = getelementptr inbounds nuw i8, ptr %18, i64 24
  store ptr %17, ptr %22, align 8, !tbaa !49
  %23 = getelementptr inbounds nuw i8, ptr %18, i64 32
  store i64 %3, ptr %23, align 8, !tbaa !51
  br label %24

24:                                               ; preds = %4, %16
  %storemerge = phi ptr [ %18, %16 ], [ null, %4 ]
  store ptr %storemerge, ptr %0, align 8, !tbaa !52
  ret void
}